; Function Attrs: mustprogress uwtable
define noundef range(i32 -1, 256) i32 @_ZN5boost6nowide6detail25console_input_buffer_base9underflowEv(ptr noundef nonnull align 8 dereferenceable(8289) %0) unnamed_addr #0 align 2 personality ptr @__gxx_personality_v0 {
  %2 = getelementptr inbounds nuw i8, ptr %0, i64 8264
  %3 = load ptr, ptr %2, align 8, !tbaa !12
  %4 = getelementptr inbounds nuw i8, ptr %0, i64 8272
  %5 = load ptr, ptr %4, align 8, !tbaa !12
  %6 = icmp eq ptr %3, %5
  br i1 %6, label %7, label %_ZNSt6vectorIcSaIcEE5clearEv.exit

_ZNSt6vectorIcSaIcEE5clearEv.exit:                ; preds = %1
  store ptr %3, ptr %4, align 8, !tbaa !34
  br label %7

7:                                                ; preds = %_ZNSt6vectorIcSaIcEE5clearEv.exit, %1
  %8 = tail call noundef i64 @_ZN5boost6nowide6detail25console_input_buffer_base4readEv(ptr noundef nonnull align 8 dereferenceable(8289) %0)
  %9 = getelementptr inbounds nuw i8, ptr %0, i64 64
  %10 = getelementptr inbounds nuw i8, ptr %9, i64 %8
  %11 = getelementptr inbounds nuw i8, ptr %0, i64 8
  store ptr %9, ptr %11, align 8, !tbaa !36
  %12 = getelementptr inbounds nuw i8, ptr %0, i64 16
  store ptr %9, ptr %12, align 8, !tbaa !35
  %13 = getelementptr inbounds nuw i8, ptr %0, i64 24
  store ptr %10, ptr %13, align 8, !tbaa !38
  %14 = icmp eq i64 %8, 0
  %15 = load i8, ptr %9, align 8
  %16 = zext i8 %15 to i32
  %.0 = select i1 %14, i32 -1, i32 %16
  ret i32 %.0
}